Certificate:
    Data:
        Version: 3 (0x2)
        Serial Number: 4096 (0x1000)
        Signature Algorithm: sha256WithRSAEncryption
        Issuer: CN=nikkierp-server-ca
        Validity
            Not Before: Apr 14 17:35:06 2026 GMT
            Not After : Apr 14 17:35:06 2027 GMT
        Subject: CN=api.nikkierp.com
        Subject Public Key Info:
            Public Key Algorithm: rsaEncryption
                Public-Key: (2048 bit)
                Modulus:
                    00:ba:0a:0f:ef:2b:d3:2e:be:1d:4e:19:ce:31:f8:
                    da:ab:db:61:25:d5:73:d9:07:ab:d9:38:91:2d:7c:
                    b4:7d:76:86:75:6c:70:2e:e0:e2:3a:15:b4:7d:19:
                    57:33:07:3f:e9:53:a4:b3:ce:7b:b3:53:a2:b8:43:
                    f2:52:82:38:78:d6:6d:2c:10:b7:c5:11:09:1b:2a:
                    e5:3f:6e:1f:48:3f:6e:d9:1e:47:71:46:a3:41:c7:
                    65:9d:3e:56:03:d3:dc:9c:d0:57:22:80:fc:aa:8a:
                    1d:f2:f6:d0:48:79:43:40:07:67:05:2d:3f:1e:8b:
                    25:94:64:1e:67:20:18:8f:90:4d:1d:be:c5:bc:8d:
                    f9:a1:7f:73:fa:b8:90:92:e0:17:3f:13:99:f6:84:
                    f7:a8:a2:85:1b:2d:fa:62:02:95:fd:ad:1b:46:be:
                    2c:9a:2d:29:28:0e:16:6f:d4:71:ca:cd:10:0e:9a:
                    21:d4:47:21:16:db:ac:1a:4a:f7:21:be:eb:16:dd:
                    38:b2:12:e4:0d:d6:b0:3b:7b:68:32:5f:7d:1c:95:
                    bf:17:67:c5:13:52:92:3d:2f:b4:57:02:f4:63:9e:
                    4c:6d:50:9d:91:9b:a9:a6:65:3b:f8:94:1b:da:e8:
                    2b:64:1c:2f:f4:86:bf:97:cc:9f:79:db:50:65:bb:
                    6e:4f
                Exponent: 65537 (0x10001)
        X509v3 extensions:
            X509v3 Basic Constraints: 
                CA:FALSE
            X509v3 Key Usage: 
                Digital Signature, Key Encipherment
            X509v3 Extended Key Usage: 
                TLS Web Server Authentication
            X509v3 Subject Alternative Name: 
                DNS:api.nikkierp.com
            X509v3 Subject Key Identifier: 
                E0:ED:3F:7A:C7:65:E1:F2:36:2E:8B:9B:E2:9E:61:2C:AF:28:AB:9A
            X509v3 Authority Key Identifier: 
                56:3E:F7:56:B4:D8:44:4C:45:97:4F:E6:E3:59:4E:B1:21:67:55:85
    Signature Algorithm: sha256WithRSAEncryption
    Signature Value:
        9e:7f:29:b4:86:a0:fe:58:54:7c:bf:63:f6:93:de:2a:36:0b:
        e2:98:de:d3:f3:07:cb:67:96:ad:76:0d:3a:d2:48:22:79:5b:
        9c:3c:db:dc:d5:98:b8:97:2a:6b:88:1f:dd:9f:e2:64:7a:8f:
        75:b9:d0:dc:3a:77:d9:99:ab:e7:e2:cf:da:3a:0c:2e:4a:fa:
        89:aa:ff:2d:c8:29:80:5a:73:ba:ca:cd:6e:1b:54:3f:3a:76:
        a1:33:39:06:26:20:65:66:fe:ea:c7:cb:42:66:bc:dc:b0:1d:
        d1:ac:12:28:0f:5b:2a:e5:8c:d7:50:44:55:20:09:7c:84:56:
        4a:98:af:ca:11:e1:1c:ae:09:92:c1:7d:f0:87:d8:ff:44:26:
        ba:6b:f4:6a:10:76:86:24:c7:3a:20:db:a8:05:53:b9:9b:c6:
        51:51:d2:e4:e7:4f:b0:78:67:0a:fd:62:58:0d:bf:50:3e:c5:
        7d:c6:05:72:51:b2:55:18:bd:d9:87:7f:57:a6:0d:c4:37:96:
        dd:f2:3a:83:7e:d9:4b:70:48:7d:98:61:02:96:2b:e8:1a:51:
        25:e2:f3:b4:63:7b:25:14:6e:45:9e:4f:17:a6:57:2e:ea:dd:
        d1:6d:7b:48:ca:66:e7:af:7f:6a:9b:07:dc:7c:84:5a:1d:d0:
        c6:31:f4:ee:db:6f:a1:7c:4f:d3:8c:a8:ad:70:70:e9:e7:13:
        55:2c:8d:d6:c0:00:d0:57:27:3e:8d:2a:95:6c:b1:a8:f8:a9:
        5e:2d:d8:92:83:8c:6d:91:22:bb:3d:a2:5e:0e:b6:92:e0:25:
        fe:c7:8b:32:f5:92:c0:02:1e:0b:46:6d:f5:97:7b:48:7b:ef:
        0c:9d:8e:6c:cd:8b:ec:b2:d8:61:ae:05:97:f4:f3:dd:d8:64:
        3c:56:72:fa:b8:43:ca:83:7a:32:58:c6:43:49:83:91:51:27:
        82:16:dc:88:2f:43:ba:ec:0b:c5:ca:44:8c:65:aa:cf:a9:e5:
        be:4c:0d:12:68:a6:53:b9:51:7e:75:65:7e:55:06:a5:b4:21:
        8a:76:40:db:e3:3c:36:b1:67:5c:16:78:1f:bc:e9:84:3a:26:
        15:d9:b5:18:5d:12:df:7b:db:b8:bb:da:fe:bf:bd:96:4d:16:
        5d:98:8a:89:79:a1:62:31:dd:55:a0:5b:5f:16:95:f2:21:b9:
        d9:be:ff:f4:de:c7:03:1f:23:a7:f9:0e:46:ef:71:08:99:e3:
        9f:b2:cc:85:c7:ec:5f:09:bc:c3:d2:4b:f5:1d:09:eb:fb:57:
        7d:d5:0e:4a:19:5b:b5:3e:90:dd:f4:6e:64:e3:72:df:17:8f:
        b1:d8:4c:fb:d7:06:90:7b
-----BEGIN CERTIFICATE-----
MIIEQjCCAiqgAwIBAgICEAAwDQYJKoZIhvcNAQELBQAwHTEbMBkGA1UEAwwSbmlr
a2llcnAtc2VydmVyLWNhMB4XDTI2MDQxNDE3MzUwNloXDTI3MDQxNDE3MzUwNlow
GzEZMBcGA1UEAwwQYXBpLm5pa2tpZXJwLmNvbTCCASIwDQYJKoZIhvcNAQEBBQAD
ggEPADCCAQoCggEBALoKD+8r0y6+HU4ZzjH42qvbYSXVc9kHq9k4kS18tH12hnVs
cC7g4joVtH0ZVzMHP+lTpLPOe7NTorhD8lKCOHjWbSwQt8URCRsq5T9uH0g/btke
R3FGo0HHZZ0+VgPT3JzQVyKA/KqKHfL20Eh5Q0AHZwUtPx6LJZRkHmcgGI+QTR2+
xbyN+aF/c/q4kJLgFz8TmfaE96iihRst+mIClf2tG0a+LJotKSgOFm/UccrNEA6a
IdRHIRbbrBpK9yG+6xbdOLIS5A3WsDt7aDJffRyVvxdnxRNSkj0vtFcC9GOeTG1Q
nZGbqaZlO/iUG9roK2QcL/SGv5fMn3nbUGW7bk8CAwEAAaOBjTCBijAJBgNVHRME
AjAAMAsGA1UdDwQEAwIFoDATBgNVHSUEDDAKBggrBgEFBQcDATAbBgNVHREEFDAS
ghBhcGkubmlra2llcnAuY29tMB0GA1UdDgQWBBTg7T96x2Xh8jYui5vinmEsryir
mjAfBgNVHSMEGDAWgBRWPvdWtNhETEWXT+bjWU6xIWdVhTANBgkqhkiG9w0BAQsF
AAOCAgEAnn8ptIag/lhUfL9j9pPeKjYL4pje0/MHy2eWrXYNOtJIInlbnDzb3NWY
uJcqa4gf3Z/iZHqPdbnQ3Dp32Zmr5+LP2joMLkr6iar/LcgpgFpzusrNbhtUPzp2
oTM5BiYgZWb+6sfLQma83LAd0awSKA9bKuWM11BEVSAJfIRWSpivyhHhHK4JksF9
8IfY/0Qmumv0ahB2hiTHOiDbqAVTuZvGUVHS5OdPsHhnCv1iWA2/UD7FfcYFclGy
VRi92Yd/V6YNxDeW3fI6g37ZS3BIfZhhApYr6BpRJeLztGN7JRRuRZ5PF6ZXLurd
0W17SMpm569/apsH3HyEWh3QxjH07ttvoXxP04yorXBw6ecTVSyN1sAA0FcnPo0q
lWyxqPipXi3YkoOMbZEiuz2iXg62kuAl/seLMvWSwAIeC0Zt9Zd7SHvvDJ2ObM2L
7LLYYa4Fl/Tz3dhkPFZy+rhDyoN6MljGQ0mDkVEnghbciC9DuuwLxcpEjGWqz6nl
vkwNEmimU7lRfnVlflUGpbQhinZA2+M8NrFnXBZ4H7zphDomFdm1GF0S33vbuLva
/r+9lk0WXZiKiXmhYjHdVaBbXxaV8iG52b7/9N7HAx8jp/kORu9xCJnjn7LMhcfs
Xwm8w9JL9R0J6/tXfdUOShlbtT6Q3fRuZONy3xePsdhM+9cGkHs=
-----END CERTIFICATE-----
