Certificate:
    Data:
        Version: 3 (0x2)
        Serial Number: 4096 (0x1000)
        Signature Algorithm: sha256WithRSAEncryption
        Issuer: O=Nikki ERP, OU=Root Certificate Authority, CN=nikkierp-root-ca
        Validity
            Not Before: Apr 14 17:35:02 2026 GMT
            Not After : Apr 13 17:35:02 2031 GMT
        Subject: CN=nikkierp-client-ca
        Subject Public Key Info:
            Public Key Algorithm: rsaEncryption
                Public-Key: (4096 bit)
                Modulus:
                    00:92:b3:0f:04:bc:93:db:78:df:ff:65:a5:a2:6c:
                    e8:61:0f:3d:cf:4d:cb:ce:1b:9c:e0:ce:37:63:9a:
                    7d:c0:b9:22:9b:0b:72:31:f5:85:67:4b:46:6c:c6:
                    c2:98:e3:2a:3f:53:cf:8e:0d:b8:b7:4b:e3:56:57:
                    44:b2:f6:db:4c:87:d7:48:dc:13:03:81:42:4a:67:
                    a4:80:fd:ce:27:85:d9:18:fe:30:a5:76:eb:a5:ce:
                    f4:15:79:d3:10:ba:92:b8:99:7f:65:ce:ae:78:4e:
                    d7:61:51:c0:2b:0b:f6:3b:95:3e:43:c6:74:88:53:
                    25:07:6c:c1:33:f0:73:9a:1f:22:6b:84:f7:e7:07:
                    0a:9e:23:79:09:33:f7:70:f3:0b:7b:6c:ed:af:66:
                    05:c4:00:08:5e:c7:fa:52:60:39:e5:9b:cc:c0:56:
                    9b:d1:3f:99:e6:25:57:b8:22:3c:c4:e2:a7:09:b9:
                    a4:86:d3:ac:f6:c3:1f:1b:f0:35:c4:5d:ea:c4:b0:
                    7b:3b:45:54:4e:ba:31:4f:25:0d:07:7e:c7:c8:39:
                    93:72:76:1d:f7:d9:42:f8:57:bc:0b:3b:e9:e2:54:
                    6d:81:f3:09:c5:b3:4e:d7:c3:de:ce:a9:f6:b0:c6:
                    49:40:d4:6d:da:1c:ca:9d:63:98:f5:be:56:f4:88:
                    52:10:c3:60:bc:5e:9e:8f:9a:69:52:dd:e3:c5:25:
                    91:3c:d8:3d:56:c5:e2:1f:90:0d:f4:8a:7e:2f:3e:
                    06:72:be:5e:36:7a:f8:6b:5f:4a:f8:c8:da:59:d2:
                    96:ac:c8:e8:55:36:87:76:0f:ec:c5:0b:ef:f1:41:
                    64:c4:4f:60:54:11:4d:5e:46:04:dd:ef:9d:e4:22:
                    fd:08:08:3f:67:18:14:64:16:ed:45:eb:6e:23:1e:
                    25:c4:0f:19:1e:32:92:39:89:ba:01:6b:f6:f7:43:
                    79:ee:ce:ab:cb:2f:e9:16:6f:68:d1:d5:13:f0:33:
                    c8:b5:60:d1:ce:e8:af:7a:00:d8:e9:9d:f1:d9:4d:
                    f7:34:40:4c:75:ac:85:27:b9:14:69:16:79:90:df:
                    81:cd:27:f4:ff:5e:4f:cf:d8:eb:c8:3c:63:11:33:
                    67:67:f7:20:d7:c3:56:04:f8:93:1f:24:4b:85:8f:
                    77:a5:a4:c7:29:7c:75:a2:d7:3b:65:97:73:6a:c4:
                    d8:ee:72:91:62:2e:a3:41:f7:0f:e4:53:ae:2b:b3:
                    62:2c:7b:8c:e6:54:c3:d4:7e:f2:91:7a:96:a9:8a:
                    69:3d:3c:72:8d:f7:5e:4b:32:d0:94:f2:4c:36:3b:
                    57:4c:52:e0:9f:ff:c3:9a:7d:f7:81:e1:70:ec:49:
                    75:02:a1
                Exponent: 65537 (0x10001)
        X509v3 extensions:
            X509v3 Basic Constraints: critical
                CA:TRUE, pathlen:0
            X509v3 Key Usage: critical
                Certificate Sign, CRL Sign
            X509v3 Subject Key Identifier: 
                4F:18:02:86:1E:27:2B:98:8C:B6:8D:AF:97:CD:81:43:EA:CE:D4:5A
            X509v3 Authority Key Identifier: 
                F6:BF:D9:8C:30:8B:09:39:90:9D:37:10:F4:D7:E2:16:35:9A:6E:B7
    Signature Algorithm: sha256WithRSAEncryption
    Signature Value:
        6b:76:16:09:2c:ee:44:7d:6d:0a:2d:d5:c1:95:8d:6a:0a:6f:
        2c:28:b3:b4:f3:0a:b1:4b:73:81:3c:a2:77:f2:f4:93:c0:cd:
        89:7e:8c:c5:31:0c:1a:ed:dd:d2:7f:85:e0:87:b7:8b:85:90:
        39:bb:51:26:2b:3c:26:f9:9c:e5:b5:52:a3:35:f6:65:70:e1:
        e3:dd:85:0f:66:17:09:d3:68:24:52:39:3e:ba:fa:0c:cf:c4:
        22:32:81:16:8c:41:d8:13:fe:eb:11:89:92:bc:10:c7:aa:8d:
        09:be:fa:29:60:39:3f:56:e0:cf:9e:7b:62:2c:39:9e:32:72:
        f5:9d:7d:ec:b7:68:d3:1e:e6:c4:e1:13:f2:30:92:9f:62:93:
        3d:74:15:e8:4b:1c:65:7c:9c:04:05:81:35:9b:f8:b3:80:28:
        8a:44:7f:4e:db:7d:d5:1a:95:db:47:e7:21:ba:bc:31:d6:e1:
        88:59:e7:e1:a3:d9:a3:03:26:2a:8d:96:d0:32:6c:3b:5d:33:
        1e:0c:67:ed:74:7b:05:49:3c:e4:ee:bf:7b:df:71:b0:03:72:
        a7:cb:29:ff:c7:5b:7e:b6:51:02:98:ca:cb:5f:c9:e5:bd:08:
        01:11:30:94:56:1b:49:f1:09:74:58:93:64:91:7c:80:c9:a9:
        37:af:99:c6:37:18:27:b9:1d:fd:7a:3b:93:d8:2f:d6:b7:fc:
        e3:43:b1:3d:16:85:0a:8d:02:cc:cb:3e:32:c6:5a:26:83:53:
        26:eb:16:18:29:ce:bc:54:90:f7:98:a3:4a:f3:91:02:45:3f:
        3f:91:59:22:b5:38:83:34:c7:da:7d:02:7f:36:ab:ec:82:0a:
        18:12:b0:0d:4b:9b:7e:8b:9d:8b:4b:5f:22:2e:8f:51:e3:be:
        87:bb:e0:9b:d8:25:d1:f5:34:7c:b3:1c:c8:c2:12:c5:ed:2b:
        59:76:a6:e1:f3:f7:1e:fc:a6:ac:0d:7e:e8:dd:69:6f:f3:ad:
        5f:79:bd:b6:21:ef:bb:23:46:1b:37:a3:f3:18:21:51:43:09:
        0c:f6:63:1a:8f:b8:ee:d8:20:ff:74:73:84:f5:15:b3:e1:86:
        b8:62:da:a7:79:e4:1b:e8:d8:e8:b4:77:83:2a:a2:ad:87:cc:
        f2:be:b4:bc:08:6c:30:9a:60:d2:7e:39:a6:34:6a:da:3f:11:
        81:db:dc:73:6d:8f:b5:32:8a:4a:a2:a7:41:54:d2:49:19:e2:
        5e:b6:5c:28:28:4c:38:44:04:dc:45:07:fe:a9:94:64:6d:b2:
        ac:f7:27:2c:14:81:52:9d:b7:6f:ee:7c:b6:c6:88:b4:03:ce:
        85:85:7d:46:4b:5d:5a:94
-----BEGIN CERTIFICATE-----
MIIFUzCCAzugAwIBAgICEAAwDQYJKoZIhvcNAQELBQAwVDESMBAGA1UECgwJTmlr
a2kgRVJQMSMwIQYDVQQLDBpSb290IENlcnRpZmljYXRlIEF1dGhvcml0eTEZMBcG
A1UEAwwQbmlra2llcnAtcm9vdC1jYTAeFw0yNjA0MTQxNzM1MDJaFw0zMTA0MTMx
NzM1MDJaMB0xGzAZBgNVBAMMEm5pa2tpZXJwLWNsaWVudC1jYTCCAiIwDQYJKoZI
hvcNAQEBBQADggIPADCCAgoCggIBAJKzDwS8k9t43/9lpaJs6GEPPc9Ny84bnODO
N2OafcC5IpsLcjH1hWdLRmzGwpjjKj9Tz44NuLdL41ZXRLL220yH10jcEwOBQkpn
pID9zieF2Rj+MKV266XO9BV50xC6kriZf2XOrnhO12FRwCsL9juVPkPGdIhTJQds
wTPwc5ofImuE9+cHCp4jeQkz93DzC3ts7a9mBcQACF7H+lJgOeWbzMBWm9E/meYl
V7giPMTipwm5pIbTrPbDHxvwNcRd6sSweztFVE66MU8lDQd+x8g5k3J2HffZQvhX
vAs76eJUbYHzCcWzTtfD3s6p9rDGSUDUbdocyp1jmPW+VvSIUhDDYLxeno+aaVLd
48UlkTzYPVbF4h+QDfSKfi8+BnK+XjZ6+GtfSvjI2lnSlqzI6FU2h3YP7MUL7/FB
ZMRPYFQRTV5GBN3vneQi/QgIP2cYFGQW7UXrbiMeJcQPGR4ykjmJugFr9vdDee7O
q8sv6RZvaNHVE/AzyLVg0c7or3oA2Omd8dlN9zRATHWshSe5FGkWeZDfgc0n9P9e
T8/Y68g8YxEzZ2f3INfDVgT4kx8kS4WPd6Wkxyl8daLXO2WXc2rE2O5ykWIuo0H3
D+RTriuzYix7jOZUw9R+8pF6lqmKaT08co33Xksy0JTyTDY7V0xS4J//w5p994Hh
cOxJdQKhAgMBAAGjZjBkMBIGA1UdEwEB/wQIMAYBAf8CAQAwDgYDVR0PAQH/BAQD
AgEGMB0GA1UdDgQWBBRPGAKGHicrmIy2ja+XzYFD6s7UWjAfBgNVHSMEGDAWgBT2
v9mMMIsJOZCdNxD01+IWNZputzANBgkqhkiG9w0BAQsFAAOCAgEAa3YWCSzuRH1t
Ci3VwZWNagpvLCiztPMKsUtzgTyid/L0k8DNiX6MxTEMGu3d0n+F4Ie3i4WQObtR
Jis8Jvmc5bVSozX2ZXDh492FD2YXCdNoJFI5Prr6DM/EIjKBFoxB2BP+6xGJkrwQ
x6qNCb76KWA5P1bgz557Yiw5njJy9Z197Ldo0x7mxOET8jCSn2KTPXQV6EscZXyc
BAWBNZv4s4AoikR/Ttt91RqV20fnIbq8MdbhiFnn4aPZowMmKo2W0DJsO10zHgxn
7XR7BUk85O6/e99xsANyp8sp/8dbfrZRApjKy1/J5b0IAREwlFYbSfEJdFiTZJF8
gMmpN6+ZxjcYJ7kd/Xo7k9gv1rf840OxPRaFCo0CzMs+MsZaJoNTJusWGCnOvFSQ
95ijSvORAkU/P5FZIrU4gzTH2n0Cfzar7IIKGBKwDUubfoudi0tfIi6PUeO+h7vg
m9gl0fU0fLMcyMISxe0rWXam4fP3HvymrA1+6N1pb/OtX3m9tiHvuyNGGzej8xgh
UUMJDPZjGo+47tgg/3RzhPUVs+GGuGLap3nkG+jY6LR3gyqirYfM8r60vAhsMJpg
0n45pjRq2j8Rgdvcc22PtTKKSqKnQVTSSRniXrZcKChMOEQE3EUH/qmUZG2yrPcn
LBSBUp23b+58tsaItAPOhYV9RktdWpQ=
-----END CERTIFICATE-----
